target datalayout = "e-m:e-p270:32:32-p271:32:32-p272:64:64-i64:64-i128:128-f80:128-n8:16:32:64-S128"
target triple = "x86_64-pc-linux-gnu"

%struct.dt_camera_capture_t = type { %struct.dt_camera_shared_t, i32, i32, i32, i32 }
%struct.dt_camera_shared_t = type { ptr }

@.str = private unnamed_addr constant [27 x i8] c"remote capture of image(s)\00", align 1
@.str.1 = private unnamed_addr constant [15 x i8] c"capture images\00", align 1

; Function Attrs: nounwind uwtable
define internal ptr @dt_camera_capture_alloc() #0 {
  %1 = alloca ptr, align 8
  %2 = alloca ptr, align 8
  %3 = alloca i32, align 4
  call void @llvm.lifetime.start.p0(i64 8, ptr %2) #7
  %4 = call noalias ptr @calloc(i64 noundef 1, i64 noundef 24) #9
  store ptr %4, ptr %2, align 8, !tbaa !15
  %5 = load ptr, ptr %2, align 8, !tbaa !15
  %6 = icmp ne ptr %5, null
  br i1 %6, label %8, label %7

7:                                                ; preds = %0
  store ptr null, ptr %1, align 8
  store i32 1, ptr %3, align 4
  br label %14

8:                                                ; preds = %0
  %9 = call ptr (...) @dt_import_session_new()
  %10 = load ptr, ptr %2, align 8, !tbaa !15
  %11 = getelementptr inbounds nuw %struct.dt_camera_capture_t, ptr %10, i32 0, i32 0
  %12 = getelementptr inbounds nuw %struct.dt_camera_shared_t, ptr %11, i32 0, i32 0
  store ptr %9, ptr %12, align 8, !tbaa !17
  %13 = load ptr, ptr %2, align 8, !tbaa !15
  store ptr %13, ptr %1, align 8
  store i32 1, ptr %3, align 4
  br label %14

14:                                               ; preds = %8, %7
  call void @llvm.lifetime.end.p0(i64 8, ptr %2) #7
  %15 = load ptr, ptr %1, align 8
  ret ptr %15
}

; Function Attrs: nounwind uwtable
define ptr @dt_camera_capture_job_create(ptr noundef %0, i32 noundef %1, i32 noundef %2, i32 noundef %3, i32 noundef %4) #0 {
  %6 = alloca ptr, align 8
  %7 = alloca ptr, align 8
  %8 = alloca i32, align 4
  %9 = alloca i32, align 4
  %10 = alloca i32, align 4
  %11 = alloca i32, align 4
  %12 = alloca ptr, align 8
  %13 = alloca i32, align 4
  %14 = alloca ptr, align 8
  store ptr %0, ptr %7, align 8, !tbaa !6
  store i32 %1, ptr %8, align 4, !tbaa !11
  store i32 %2, ptr %9, align 4, !tbaa !11
  store i32 %3, ptr %10, align 4, !tbaa !11
  store i32 %4, ptr %11, align 4, !tbaa !11
  call void @llvm.lifetime.start.p0(i64 8, ptr %12) #7
  %15 = call ptr (ptr, ptr, ...) @dt_control_job_create(ptr noundef @dt_camera_capture_job_run, ptr noundef @.str)
  store ptr %15, ptr %12, align 8, !tbaa !13
  %16 = load ptr, ptr %12, align 8, !tbaa !13
  %17 = icmp ne ptr %16, null
  br i1 %17, label %19, label %18

18:                                               ; preds = %5
  store ptr null, ptr %6, align 8
  store i32 1, ptr %13, align 4
  br label %49

19:                                               ; preds = %5
  call void @llvm.lifetime.start.p0(i64 8, ptr %14) #7
  %20 = call ptr @dt_camera_capture_alloc()
  store ptr %20, ptr %14, align 8, !tbaa !15
  %21 = load ptr, ptr %14, align 8, !tbaa !15
  %22 = icmp ne ptr %21, null
  br i1 %22, label %25, label %23

23:                                               ; preds = %19
  %24 = load ptr, ptr %12, align 8, !tbaa !13
  call void @dt_control_job_dispose(ptr noundef %24)
  store ptr null, ptr %6, align 8
  store i32 1, ptr %13, align 4
  br label %48

25:                                               ; preds = %19
  %26 = load ptr, ptr %12, align 8, !tbaa !13
  %27 = call ptr @dcgettext(ptr noundef null, ptr noundef @.str.1, i32 noundef 5) #7
  call void @dt_control_job_add_progress(ptr noundef %26, ptr noundef %27, i32 noundef 0)
  %28 = load ptr, ptr %12, align 8, !tbaa !13
  %29 = load ptr, ptr %14, align 8, !tbaa !15
  call void @dt_control_job_set_params(ptr noundef %28, ptr noundef %29, ptr noundef @dt_camera_capture_cleanup)
  %30 = load ptr, ptr %14, align 8, !tbaa !15
  %31 = getelementptr inbounds nuw %struct.dt_camera_capture_t, ptr %30, i32 0, i32 0
  %32 = getelementptr inbounds nuw %struct.dt_camera_shared_t, ptr %31, i32 0, i32 0
  %33 = load ptr, ptr %32, align 8, !tbaa !17
  %34 = load ptr, ptr %7, align 8, !tbaa !6
  call void @dt_import_session_set_name(ptr noundef %33, ptr noundef %34)
  %35 = load i32, ptr %8, align 4, !tbaa !11
  %36 = load ptr, ptr %14, align 8, !tbaa !15
  %37 = getelementptr inbounds nuw %struct.dt_camera_capture_t, ptr %36, i32 0, i32 1
  store i32 %35, ptr %37, align 8, !tbaa !21
  %38 = load i32, ptr %9, align 4, !tbaa !11
  %39 = load ptr, ptr %14, align 8, !tbaa !15
  %40 = getelementptr inbounds nuw %struct.dt_camera_capture_t, ptr %39, i32 0, i32 2
  store i32 %38, ptr %40, align 4, !tbaa !22
  %41 = load i32, ptr %10, align 4, !tbaa !11
  %42 = load ptr, ptr %14, align 8, !tbaa !15
  %43 = getelementptr inbounds nuw %struct.dt_camera_capture_t, ptr %42, i32 0, i32 3
  store i32 %41, ptr %43, align 8, !tbaa !23
  %44 = load i32, ptr %11, align 4, !tbaa !11
  %45 = load ptr, ptr %14, align 8, !tbaa !15
  %46 = getelementptr inbounds nuw %struct.dt_camera_capture_t, ptr %45, i32 0, i32 4
  store i32 %44, ptr %46, align 4, !tbaa !24
  %47 = load ptr, ptr %12, align 8, !tbaa !13
  store ptr %47, ptr %6, align 8
  store i32 1, ptr %13, align 4
  br label %48

48:                                               ; preds = %25, %23
  call void @llvm.lifetime.end.p0(i64 8, ptr %14) #7
  br label %49

49:                                               ; preds = %48, %18
  call void @llvm.lifetime.end.p0(i64 8, ptr %12) #7
  %50 = load ptr, ptr %6, align 8
  ret ptr %50
}