; Function Attrs: nounwind uwtable
define ptr @dt_camera_capture_job_create(ptr noundef %0, i32 noundef %1, i32 noundef %2, i32 noundef %3, i32 noundef %4) local_unnamed_addr #0 {
  %6 = tail call ptr (ptr, ptr, ...) @dt_control_job_create(ptr noundef nonnull @dt_camera_capture_job_run, ptr noundef nonnull @.str) #10
  %.not = icmp eq ptr %6, null
  br i1 %.not, label %18, label %7

7:                                                ; preds = %5
  %8 = tail call noalias dereferenceable_or_null(24) ptr @calloc(i64 noundef 1, i64 noundef 24) #11
  %.not.i = icmp eq ptr %8, null
  br i1 %.not.i, label %9, label %10

9:                                                ; preds = %7
  tail call void @dt_control_job_dispose(ptr noundef nonnull %6) #10
  br label %18

10:                                               ; preds = %7
  %11 = tail call ptr (...) @dt_import_session_new() #10
  store ptr %11, ptr %8, align 8, !tbaa !6
  %12 = tail call ptr @dcgettext(ptr noundef null, ptr noundef nonnull @.str.1, i32 noundef 5) #10
  tail call void @dt_control_job_add_progress(ptr noundef nonnull %6, ptr noundef %12, i32 noundef 0) #10
  tail call void @dt_control_job_set_params(ptr noundef nonnull %6, ptr noundef nonnull %8, ptr noundef nonnull @dt_camera_capture_cleanup) #10
  %13 = load ptr, ptr %8, align 8, !tbaa !6
  tail call void @dt_import_session_set_name(ptr noundef %13, ptr noundef %0) #10
  %14 = getelementptr inbounds nuw i8, ptr %8, i64 8
  store i32 %1, ptr %14, align 8, !tbaa !14
  %15 = getelementptr inbounds nuw i8, ptr %8, i64 12
  store i32 %2, ptr %15, align 4, !tbaa !15
  %16 = getelementptr inbounds nuw i8, ptr %8, i64 16
  store i32 %3, ptr %16, align 8, !tbaa !16
  %17 = getelementptr inbounds nuw i8, ptr %8, i64 20
  store i32 %4, ptr %17, align 4, !tbaa !17
  br label %18

18:                                               ; preds = %9, %10, %5
  %.0 = phi ptr [ null, %5 ], [ %6, %10 ], [ null, %9 ]
  ret ptr %.0
}